target datalayout = "e-m:e-p270:32:32-p271:32:32-p272:64:64-i64:64-i128:128-f80:128-n8:16:32:64-S128"
target triple = "x86_64-pc-linux-gnu"

%struct.expert_field = type { i32, i32 }
%struct._rose_ctx_t = type { i32, ptr, ptr, ptr, ptr, ptr, ptr, i32, i8, ptr, i64, %struct.anon.7, ptr }
%struct.anon.7 = type { i32, i32, i32, ptr, ptr }
%struct._qsig_op_t = type { i32, ptr, ptr }

@hf_qsig_operation = internal global i32 0, align 4
@hf_qsig_service = internal global i32 0, align 4
@ett_qsig = internal global i32 0, align 4
@ei_qsig_unsupported_error_type = internal global %struct.expert_field zeroinitializer, align 4
@proto_qsig = internal global i32 0, align 4
@.str.2039 = private unnamed_addr constant [29 x i8] c"%s:%u: failed assertion \22%s\22\00", align 1
@.str.2040 = private unnamed_addr constant [30 x i8] c"epan/dissectors/packet-qsig.c\00", align 1
@.str.2041 = private unnamed_addr constant [5 x i8] c"rctx\00", align 1
@.str.2042 = private unnamed_addr constant [2 x i8] c".\00", align 1
@.str.2043 = private unnamed_addr constant [5 x i8] c": %s\00", align 1
@.str.2044 = private unnamed_addr constant [6 x i8] c" - %s\00", align 1
@.str.2045 = private unnamed_addr constant [4 x i8] c" %s\00", align 1

; Function Attrs: nounwind null_pointer_is_valid sspstrong uwtable
define internal i32 @get_service(i32 noundef %0) #4 {
  %2 = alloca i32, align 4
  %3 = alloca i32, align 4
  store i32 %0, ptr %3, align 4
  %4 = load i32, ptr %3, align 4
  %5 = icmp slt i32 %4, 0
  br i1 %5, label %9, label %6

6:                                                ; preds = %1
  %7 = load i32, ptr %3, align 4
  %8 = icmp sge i32 %7, 121
  br i1 %8, label %9, label %10

9:                                                ; preds = %6, %1
  store i32 -1, ptr %2, align 4
  br label %15

10:                                               ; preds = %6
  %11 = load i32, ptr %3, align 4
  %12 = sext i32 %11 to i64
  %13 = getelementptr [121 x i32], ptr @op2srv_tab, i64 0, i64 %12
  %14 = load i32, ptr %13, align 4
  store i32 %14, ptr %2, align 4
  br label %15

15:                                               ; preds = %10, %9
  %16 = load i32, ptr %2, align 4
  ret i32 %16
}

; Function Attrs: nounwind null_pointer_is_valid sspstrong uwtable
define internal ptr @get_op(i32 noundef %0) #4 {
  %2 = alloca ptr, align 8
  %3 = alloca i32, align 4
  %4 = alloca i32, align 4
  %5 = alloca i32, align 4
  store i32 %0, ptr %3, align 4
  call void @llvm.lifetime.start.p0(i64 4, ptr %4) #6
  store i32 121, ptr %4, align 4
  br label %6

6:                                                ; preds = %22, %1
  %7 = load i32, ptr %4, align 4
  %8 = icmp sge i32 %7, 0
  br i1 %8, label %9, label %25

9:                                                ; preds = %6
  %10 = load i32, ptr %4, align 4
  %11 = sext i32 %10 to i64
  %12 = getelementptr [122 x %struct._qsig_op_t], ptr @qsig_op_tab, i64 0, i64 %11
  %13 = getelementptr inbounds nuw %struct._qsig_op_t, ptr %12, i32 0, i32 0
  %14 = load i32, ptr %13, align 8
  %15 = load i32, ptr %3, align 4
  %16 = icmp eq i32 %14, %15
  br i1 %16, label %17, label %21

17:                                               ; preds = %9
  %18 = load i32, ptr %4, align 4
  %19 = sext i32 %18 to i64
  %20 = getelementptr [122 x %struct._qsig_op_t], ptr @qsig_op_tab, i64 0, i64 %19
  store ptr %20, ptr %2, align 8
  store i32 1, ptr %5, align 4
  br label %26

21:                                               ; preds = %9
  br label %22

22:                                               ; preds = %21
  %23 = load i32, ptr %4, align 4
  %24 = add i32 %23, -1
  store i32 %24, ptr %4, align 4
  br label %6, !llvm.loop !11

25:                                               ; preds = %6
  store ptr null, ptr %2, align 8
  store i32 1, ptr %5, align 4
  br label %26

26:                                               ; preds = %25, %17
  call void @llvm.lifetime.end.p0(i64 4, ptr %4) #6
  %27 = load ptr, ptr %2, align 8
  ret ptr %27
}

; Function Attrs: null_pointer_is_valid sspstrong uwtable
define internal i32 @dissect_qsig_arg(ptr noundef %0, ptr noundef %1, ptr noundef %2, ptr noundef %3) #0 {
  %5 = alloca i32, align 4
  %6 = alloca ptr, align 8
  %7 = alloca ptr, align 8
  %8 = alloca ptr, align 8
  %9 = alloca ptr, align 8
  %10 = alloca i32, align 4
  %11 = alloca ptr, align 8
  %12 = alloca i32, align 4
  %13 = alloca i32, align 4
  %14 = alloca i32, align 4
  %15 = alloca ptr, align 8
  %16 = alloca ptr, align 8
  %17 = alloca ptr, align 8
  %18 = alloca ptr, align 8
  %19 = alloca ptr, align 8
  %20 = alloca ptr, align 8
  %21 = alloca i32, align 4
  store ptr %0, ptr %6, align 8
  store ptr %1, ptr %7, align 8
  store ptr %2, ptr %8, align 8
  store ptr %3, ptr %9, align 8
  call void @llvm.lifetime.start.p0(i64 4, ptr %10) #6
  store i32 0, ptr %10, align 4
  call void @llvm.lifetime.start.p0(i64 8, ptr %11) #6
  call void @llvm.lifetime.start.p0(i64 4, ptr %12) #6
  store i32 0, ptr %12, align 4
  call void @llvm.lifetime.start.p0(i64 4, ptr %13) #6
  call void @llvm.lifetime.start.p0(i64 4, ptr %14) #6
  call void @llvm.lifetime.start.p0(i64 8, ptr %15) #6
  store ptr null, ptr %15, align 8
  call void @llvm.lifetime.start.p0(i64 8, ptr %16) #6
  call void @llvm.lifetime.start.p0(i64 8, ptr %17) #6
  call void @llvm.lifetime.start.p0(i64 8, ptr %18) #6
  call void @llvm.lifetime.start.p0(i64 8, ptr %19) #6
  call void @llvm.lifetime.start.p0(i64 8, ptr %20) #6
  %22 = load ptr, ptr %9, align 8
  %23 = icmp eq ptr %22, null
  br i1 %23, label %24, label %25

24:                                               ; preds = %4
  store i32 0, ptr %5, align 4
  store i32 1, ptr %21, align 4
  br label %180

25:                                               ; preds = %4
  %26 = load ptr, ptr %9, align 8
  %27 = call ptr @get_rose_ctx(ptr noundef %26)
  store ptr %27, ptr %11, align 8
  %28 = load ptr, ptr %11, align 8
  %29 = icmp ne ptr %28, null
  br i1 %29, label %30, label %31

30:                                               ; preds = %25
  br label %33

31:                                               ; preds = %25
  call void (ptr, ...) @proto_report_dissector_bug(ptr noundef @.str.2039, ptr noundef @.str.2040, i32 noundef 12350, ptr noundef @.str.2041) #7
  unreachable

32:                                               ; No predecessors!
  br label %33

33:                                               ; preds = %32, %30
  %34 = load ptr, ptr %11, align 8
  %35 = getelementptr inbounds nuw %struct._rose_ctx_t, ptr %34, i32 0, i32 11
  %36 = getelementptr inbounds nuw %struct.anon.7, ptr %35, i32 0, i32 0
  %37 = load i32, ptr %36, align 8
  %38 = icmp ne i32 %37, 1
  br i1 %38, label %39, label %41

39:                                               ; preds = %33
  %40 = load i32, ptr %10, align 4
  store i32 %40, ptr %5, align 4
  store i32 1, ptr %21, align 4
  br label %180

41:                                               ; preds = %33
  %42 = load ptr, ptr %11, align 8
  %43 = getelementptr inbounds nuw %struct._rose_ctx_t, ptr %42, i32 0, i32 11
  %44 = getelementptr inbounds nuw %struct.anon.7, ptr %43, i32 0, i32 1
  %45 = load i32, ptr %44, align 4
  %46 = icmp eq i32 %45, 0
  br i1 %46, label %47, label %54

47:                                               ; preds = %41
  %48 = load ptr, ptr %11, align 8
  %49 = getelementptr inbounds nuw %struct._rose_ctx_t, ptr %48, i32 0, i32 11
  %50 = getelementptr inbounds nuw %struct.anon.7, ptr %49, i32 0, i32 2
  %51 = load i32, ptr %50, align 8
  store i32 %51, ptr %12, align 4
  %52 = load i32, ptr %12, align 4
  %53 = call ptr @get_op(i32 noundef %52)
  store ptr %53, ptr %15, align 8
  br label %87

54:                                               ; preds = %41
  %55 = load ptr, ptr %11, align 8
  %56 = getelementptr inbounds nuw %struct._rose_ctx_t, ptr %55, i32 0, i32 11
  %57 = getelementptr inbounds nuw %struct.anon.7, ptr %56, i32 0, i32 1
  %58 = load i32, ptr %57, align 4
  %59 = icmp eq i32 %58, 1
  br i1 %59, label %60, label %84

60:                                               ; preds = %54
  %61 = load ptr, ptr %11, align 8
  %62 = getelementptr inbounds nuw %struct._rose_ctx_t, ptr %61, i32 0, i32 11
  %63 = getelementptr inbounds nuw %struct.anon.7, ptr %62, i32 0, i32 3
  %64 = load ptr, ptr %63, align 8
  %65 = call ptr @g_strrstr(ptr noundef %64, ptr noundef @.str.2042)
  store ptr %65, ptr %17, align 8
  %66 = load ptr, ptr %17, align 8
  %67 = icmp ne ptr %66, null
  br i1 %67, label %68, label %76

68:                                               ; preds = %60
  %69 = load ptr, ptr %17, align 8
  %70 = getelementptr i8, ptr %69, i64 1
  %71 = call zeroext i1 @ws_strtou32(ptr noundef %70, ptr noundef null, ptr noundef %14)
  br i1 %71, label %72, label %75

72:                                               ; preds = %68
  %73 = load i32, ptr %14, align 4
  %74 = call ptr @get_op(i32 noundef %73)
  store ptr %74, ptr %15, align 8
  br label %75

75:                                               ; preds = %72, %68
  br label %76

76:                                               ; preds = %75, %60
  %77 = load ptr, ptr %15, align 8
  %78 = icmp ne ptr %77, null
  br i1 %78, label %79, label %83

79:                                               ; preds = %76
  %80 = load ptr, ptr %15, align 8
  %81 = getelementptr inbounds nuw %struct._qsig_op_t, ptr %80, i32 0, i32 0
  %82 = load i32, ptr %81, align 8
  store i32 %82, ptr %12, align 4
  br label %83

83:                                               ; preds = %79, %76
  br label %86

84:                                               ; preds = %54
  %85 = load i32, ptr %10, align 4
  store i32 %85, ptr %5, align 4
  store i32 1, ptr %21, align 4
  br label %180

86:                                               ; preds = %83
  br label %87

87:                                               ; preds = %86, %47
  %88 = load ptr, ptr %15, align 8
  %89 = icmp ne ptr %88, null
  br i1 %89, label %92, label %90

90:                                               ; preds = %87
  %91 = load i32, ptr %10, align 4
  store i32 %91, ptr %5, align 4
  store i32 1, ptr %21, align 4
  br label %180

92:                                               ; preds = %87
  %93 = load i32, ptr %12, align 4
  %94 = call i32 @get_service(i32 noundef %93)
  store i32 %94, ptr %13, align 4
  %95 = load ptr, ptr %8, align 8
  %96 = load i32, ptr @proto_qsig, align 4
  %97 = load ptr, ptr %6, align 8
  %98 = load i32, ptr %10, align 4
  %99 = load ptr, ptr %6, align 8
  %100 = call i32 @tvb_captured_length(ptr noundef %99)
  %101 = call ptr @proto_tree_add_item(ptr noundef %95, i32 noundef %96, ptr noundef %97, i32 noundef %98, i32 noundef %100, i32 noundef 0)
  store ptr %101, ptr %18, align 8
  %102 = load ptr, ptr %18, align 8
  %103 = load i32, ptr @ett_qsig, align 4
  %104 = call ptr @proto_item_add_subtree(ptr noundef %102, i32 noundef %103)
  store ptr %104, ptr %20, align 8
  %105 = load ptr, ptr %20, align 8
  %106 = load i32, ptr @hf_qsig_operation, align 4
  %107 = load ptr, ptr %6, align 8
  %108 = load i32, ptr %12, align 4
  %109 = call ptr @proto_tree_add_uint(ptr noundef %105, i32 noundef %106, ptr noundef %107, i32 noundef 0, i32 noundef 0, i32 noundef %108)
  %110 = load i32, ptr %12, align 4
  %111 = call ptr @try_val_to_str(i32 noundef %110, ptr noundef @qsig_str_operation)
  store ptr %111, ptr %16, align 8
  %112 = load ptr, ptr %16, align 8
  %113 = icmp ne ptr %112, null
  br i1 %113, label %114, label %135

114:                                              ; preds = %92
  %115 = load ptr, ptr %18, align 8
  %116 = load ptr, ptr %16, align 8
  call void (ptr, ptr, ...) @proto_item_append_text(ptr noundef %115, ptr noundef @.str.2043, ptr noundef %116)
  %117 = load ptr, ptr %11, align 8
  %118 = getelementptr inbounds nuw %struct._rose_ctx_t, ptr %117, i32 0, i32 11
  %119 = getelementptr inbounds nuw %struct.anon.7, ptr %118, i32 0, i32 4
  %120 = load ptr, ptr %119, align 8
  %121 = load ptr, ptr %16, align 8
  call void (ptr, ptr, ...) @proto_item_append_text(ptr noundef %120, ptr noundef @.str.2044, ptr noundef %121)
  %122 = load ptr, ptr %11, align 8
  %123 = getelementptr inbounds nuw %struct._rose_ctx_t, ptr %122, i32 0, i32 7
  %124 = load i32, ptr %123, align 8
  %125 = icmp sge i32 %124, 0
  br i1 %125, label %126, label %134

126:                                              ; preds = %114
  %127 = load ptr, ptr %8, align 8
  %128 = call ptr @proto_tree_get_parent(ptr noundef %127)
  %129 = load ptr, ptr %11, align 8
  %130 = getelementptr inbounds nuw %struct._rose_ctx_t, ptr %129, i32 0, i32 7
  %131 = load i32, ptr %130, align 8
  %132 = call ptr @proto_item_get_parent_nth(ptr noundef %128, i32 noundef %131)
  %133 = load ptr, ptr %16, align 8
  call void (ptr, ptr, ...) @proto_item_append_text(ptr noundef %132, ptr noundef @.str.2045, ptr noundef %133)
  br label %134

134:                                              ; preds = %126, %114
  br label %135

135:                                              ; preds = %134, %92
  %136 = load ptr, ptr %20, align 8
  %137 = load i32, ptr @hf_qsig_service, align 4
  %138 = load ptr, ptr %6, align 8
  %139 = load i32, ptr %13, align 4
  %140 = call ptr @proto_tree_add_uint(ptr noundef %136, i32 noundef %137, ptr noundef %138, i32 noundef 0, i32 noundef 0, i32 noundef %139)
  store ptr %140, ptr %19, align 8
  %141 = load i32, ptr %13, align 4
  %142 = call ptr @try_val_to_str(i32 noundef %141, ptr noundef @qsig_str_service_name)
  store ptr %142, ptr %16, align 8
  %143 = load ptr, ptr %16, align 8
  %144 = icmp ne ptr %143, null
  br i1 %144, label %145, label %148

145:                                              ; preds = %135
  %146 = load ptr, ptr %19, align 8
  %147 = load ptr, ptr %16, align 8
  call void (ptr, ptr, ...) @proto_item_append_text(ptr noundef %146, ptr noundef @.str.2044, ptr noundef %147)
  br label %148

148:                                              ; preds = %145, %135
  %149 = load ptr, ptr %15, align 8
  %150 = getelementptr inbounds nuw %struct._qsig_op_t, ptr %149, i32 0, i32 1
  %151 = load ptr, ptr %150, align 8
  %152 = icmp ne ptr %151, null
  br i1 %152, label %153, label %161

153:                                              ; preds = %148
  %154 = load ptr, ptr %15, align 8
  %155 = getelementptr inbounds nuw %struct._qsig_op_t, ptr %154, i32 0, i32 1
  %156 = load ptr, ptr %155, align 8
  %157 = load ptr, ptr %6, align 8
  %158 = load ptr, ptr %7, align 8
  %159 = load ptr, ptr %20, align 8
  %160 = call i32 %156(ptr noundef %157, ptr noundef %158, ptr noundef %159, ptr noundef null)
  store i32 %160, ptr %10, align 4
  br label %178

161:                                              ; preds = %148
  %162 = load ptr, ptr %6, align 8
  %163 = load i32, ptr %10, align 4
  %164 = call i32 @tvb_reported_length_remaining(ptr noundef %162, i32 noundef %163)
  %165 = icmp sgt i32 %164, 0
  br i1 %165, label %166, label %177

166:                                              ; preds = %161
  %167 = load ptr, ptr %8, align 8
  %168 = load ptr, ptr %7, align 8
  %169 = load ptr, ptr %6, align 8
  %170 = load i32, ptr %10, align 4
  %171 = call ptr @proto_tree_add_expert(ptr noundef %167, ptr noundef %168, ptr noundef @ei_qsig_unsupported_error_type, ptr noundef %169, i32 noundef %170, i32 noundef -1)
  %172 = load ptr, ptr %6, align 8
  %173 = load i32, ptr %10, align 4
  %174 = call i32 @tvb_captured_length_remaining(ptr noundef %172, i32 noundef %173)
  %175 = load i32, ptr %10, align 4
  %176 = add i32 %175, %174
  store i32 %176, ptr %10, align 4
  br label %177

177:                                              ; preds = %166, %161
  br label %178

178:                                              ; preds = %177, %153
  %179 = load i32, ptr %10, align 4
  store i32 %179, ptr %5, align 4
  store i32 1, ptr %21, align 4
  br label %180

180:                                              ; preds = %178, %90, %84, %39, %24
  call void @llvm.lifetime.end.p0(i64 8, ptr %20) #6
  call void @llvm.lifetime.end.p0(i64 8, ptr %19) #6
  call void @llvm.lifetime.end.p0(i64 8, ptr %18) #6
  call void @llvm.lifetime.end.p0(i64 8, ptr %17) #6
  call void @llvm.lifetime.end.p0(i64 8, ptr %16) #6
  call void @llvm.lifetime.end.p0(i64 8, ptr %15) #6
  call void @llvm.lifetime.end.p0(i64 4, ptr %14) #6
  call void @llvm.lifetime.end.p0(i64 4, ptr %13) #6
  call void @llvm.lifetime.end.p0(i64 4, ptr %12) #6
  call void @llvm.lifetime.end.p0(i64 8, ptr %11) #6
  call void @llvm.lifetime.end.p0(i64 4, ptr %10) #6
  %181 = load i32, ptr %5, align 4
  ret i32 %181
}