; Function Attrs: null_pointer_is_valid sspstrong uwtable
define internal i32 @dissect_qsig_arg(ptr noundef %0, ptr noundef %1, ptr noundef %2, ptr noundef %3) #0 {
  %5 = alloca i32, align 4
  call void @llvm.lifetime.start.p0(i64 4, ptr nonnull %5) #5
  %6 = icmp eq ptr %3, null
  br i1 %6, label %get_op.exit.thread, label %7

7:                                                ; preds = %4
  %8 = tail call ptr @get_rose_ctx(ptr noundef nonnull %3)
  %.not = icmp eq ptr %8, null
  br i1 %.not, label %9, label %10

9:                                                ; preds = %7
  tail call void (ptr, ...) @proto_report_dissector_bug(ptr noundef nonnull @.str.2039, ptr noundef nonnull @.str.2040, i32 noundef 12350, ptr noundef nonnull @.str.2041) #6
  unreachable

10:                                               ; preds = %7
  %11 = getelementptr inbounds nuw i8, ptr %8, i64 80
  %12 = load i32, ptr %11, align 8
  %.not68 = icmp eq i32 %12, 1
  br i1 %.not68, label %13, label %get_op.exit.thread

13:                                               ; preds = %10
  %14 = getelementptr inbounds nuw i8, ptr %8, i64 84
  %15 = load i32, ptr %14, align 4
  switch i32 %15, label %get_op.exit.thread [
    i32 0, label %16
    i32 1, label %26
  ]

16:                                               ; preds = %13
  %17 = getelementptr inbounds nuw i8, ptr %8, i64 88
  %18 = load i32, ptr %17, align 8
  br label %21

19:                                               ; preds = %21
  %20 = add nsw i32 %.06.i, -1
  %.not.i = icmp eq i32 %.06.i, 0
  br i1 %.not.i, label %get_op.exit.thread, label %21, !llvm.loop !6

21:                                               ; preds = %19, %16
  %.06.i = phi i32 [ 121, %16 ], [ %20, %19 ]
  %22 = zext nneg i32 %.06.i to i64
  %23 = getelementptr [122 x %struct._qsig_op_t], ptr @qsig_op_tab, i64 0, i64 %22
  %24 = load i32, ptr %23, align 8
  %25 = icmp eq i32 %24, %18
  br i1 %25, label %get_op.exit, label %19

26:                                               ; preds = %13
  %27 = getelementptr inbounds nuw i8, ptr %8, i64 96
  %28 = load ptr, ptr %27, align 8
  %29 = tail call ptr @g_strrstr(ptr noundef %28, ptr noundef nonnull @.str.2042)
  %.not69 = icmp eq ptr %29, null
  br i1 %.not69, label %get_op.exit.thread, label %30

30:                                               ; preds = %26
  %31 = getelementptr i8, ptr %29, i64 1
  %32 = call zeroext i1 @ws_strtou32(ptr noundef %31, ptr noundef null, ptr noundef nonnull %5)
  br i1 %32, label %33, label %get_op.exit.thread

33:                                               ; preds = %30
  %34 = load i32, ptr %5, align 4
  br label %37

35:                                               ; preds = %37
  %36 = add nsw i32 %.06.i75, -1
  %.not.i76 = icmp eq i32 %.06.i75, 0
  br i1 %.not.i76, label %get_op.exit.thread, label %37, !llvm.loop !6

37:                                               ; preds = %35, %33
  %.06.i75 = phi i32 [ 121, %33 ], [ %36, %35 ]
  %38 = zext nneg i32 %.06.i75 to i64
  %39 = getelementptr [122 x %struct._qsig_op_t], ptr @qsig_op_tab, i64 0, i64 %38
  %40 = load i32, ptr %39, align 8
  %41 = icmp eq i32 %40, %34
  br i1 %41, label %get_op.exit78, label %35

get_op.exit78:                                    ; preds = %37
  %.not70 = icmp eq ptr %39, null
  br i1 %.not70, label %get_op.exit.thread, label %get_op.exit.thread84

get_op.exit:                                      ; preds = %21
  %.not71 = icmp eq ptr %23, null
  br i1 %.not71, label %get_op.exit.thread, label %get_op.exit.thread84

get_op.exit.thread84:                             ; preds = %get_op.exit78, %get_op.exit
  %.05989 = phi i32 [ %18, %get_op.exit ], [ %34, %get_op.exit78 ]
  %42 = phi i64 [ %22, %get_op.exit ], [ %38, %get_op.exit78 ]
  %or.cond.i = icmp ugt i32 %.05989, 120
  br i1 %or.cond.i, label %get_service.exit, label %43

43:                                               ; preds = %get_op.exit.thread84
  %44 = zext nneg i32 %.05989 to i64
  %45 = getelementptr [121 x i32], ptr @op2srv_tab, i64 0, i64 %44
  %46 = load i32, ptr %45, align 4
  br label %get_service.exit

get_service.exit:                                 ; preds = %get_op.exit.thread84, %43
  %.0.i = phi i32 [ %46, %43 ], [ -1, %get_op.exit.thread84 ]
  %47 = load i32, ptr @proto_qsig, align 4
  %48 = call i32 @tvb_captured_length(ptr noundef %0)
  %49 = call ptr @proto_tree_add_item(ptr noundef %2, i32 noundef %47, ptr noundef %0, i32 noundef 0, i32 noundef %48, i32 noundef 0)
  %50 = load i32, ptr @ett_qsig, align 4
  %51 = call ptr @proto_item_add_subtree(ptr noundef %49, i32 noundef %50)
  %52 = load i32, ptr @hf_qsig_operation, align 4
  %53 = call ptr @proto_tree_add_uint(ptr noundef %51, i32 noundef %52, ptr noundef %0, i32 noundef 0, i32 noundef 0, i32 noundef %.05989)
  %54 = call ptr @try_val_to_str(i32 noundef %.05989, ptr noundef nonnull @qsig_str_operation)
  %.not72 = icmp eq ptr %54, null
  br i1 %.not72, label %65, label %55

55:                                               ; preds = %get_service.exit
  call void (ptr, ptr, ...) @proto_item_append_text(ptr noundef %49, ptr noundef nonnull @.str.2043, ptr noundef nonnull %54)
  %56 = getelementptr inbounds nuw i8, ptr %8, i64 104
  %57 = load ptr, ptr %56, align 8
  call void (ptr, ptr, ...) @proto_item_append_text(ptr noundef %57, ptr noundef nonnull @.str.2044, ptr noundef nonnull %54)
  %58 = getelementptr inbounds nuw i8, ptr %8, i64 56
  %59 = load i32, ptr %58, align 8
  %60 = icmp sgt i32 %59, -1
  br i1 %60, label %61, label %65

61:                                               ; preds = %55
  %62 = call ptr @proto_tree_get_parent(ptr noundef %2)
  %63 = load i32, ptr %58, align 8
  %64 = call ptr @proto_item_get_parent_nth(ptr noundef %62, i32 noundef %63)
  call void (ptr, ptr, ...) @proto_item_append_text(ptr noundef %64, ptr noundef nonnull @.str.2045, ptr noundef nonnull %54)
  br label %65

65:                                               ; preds = %55, %61, %get_service.exit
  %66 = load i32, ptr @hf_qsig_service, align 4
  %67 = call ptr @proto_tree_add_uint(ptr noundef %51, i32 noundef %66, ptr noundef %0, i32 noundef 0, i32 noundef 0, i32 noundef %.0.i)
  %68 = call ptr @try_val_to_str(i32 noundef %.0.i, ptr noundef nonnull @qsig_str_service_name)
  %.not73 = icmp eq ptr %68, null
  br i1 %.not73, label %70, label %69

69:                                               ; preds = %65
  call void (ptr, ptr, ...) @proto_item_append_text(ptr noundef %67, ptr noundef nonnull @.str.2044, ptr noundef nonnull %68)
  br label %70

70:                                               ; preds = %69, %65
  %71 = getelementptr [122 x %struct._qsig_op_t], ptr @qsig_op_tab, i64 0, i64 %42, i32 1
  %72 = load ptr, ptr %71, align 8
  %.not74 = icmp eq ptr %72, null
  br i1 %.not74, label %75, label %73

73:                                               ; preds = %70
  %74 = call i32 %72(ptr noundef %0, ptr noundef %1, ptr noundef %51, ptr noundef null)
  br label %get_op.exit.thread

75:                                               ; preds = %70
  %76 = call i32 @tvb_reported_length_remaining(ptr noundef %0, i32 noundef 0)
  %77 = icmp sgt i32 %76, 0
  br i1 %77, label %78, label %get_op.exit.thread

78:                                               ; preds = %75
  %79 = call ptr @proto_tree_add_expert(ptr noundef %2, ptr noundef %1, ptr noundef nonnull @ei_qsig_unsupported_error_type, ptr noundef %0, i32 noundef 0, i32 noundef -1)
  %80 = call i32 @tvb_captured_length_remaining(ptr noundef %0, i32 noundef 0)
  br label %get_op.exit.thread

get_op.exit.thread:                               ; preds = %35, %19, %26, %30, %get_op.exit78, %73, %78, %75, %get_op.exit, %13, %10, %4
  %.0 = phi i32 [ 0, %4 ], [ 0, %10 ], [ 0, %13 ], [ 0, %get_op.exit ], [ %74, %73 ], [ %80, %78 ], [ 0, %75 ], [ 0, %get_op.exit78 ], [ 0, %30 ], [ 0, %26 ], [ 0, %19 ], [ 0, %35 ]
  call void @llvm.lifetime.end.p0(i64 4, ptr nonnull %5) #5
  ret i32 %.0
}